target datalayout = "e-m:e-p270:32:32-p271:32:32-p272:64:64-i64:64-i128:128-f80:128-n8:16:32:64-S128"
target triple = "x86_64-pc-linux-gnu"

%"class.cv::tinyxml2::StrPair" = type { i32, ptr, ptr }
%"class.cv::tinyxml2::XMLNode" = type { ptr, ptr, ptr, %"class.cv::tinyxml2::StrPair", ptr, ptr, ptr, ptr, ptr }
%"class.cv::tinyxml2::XMLElement" = type { %"class.cv::tinyxml2::XMLNode", i32, ptr }
%"class.cv::tinyxml2::XMLAttribute" = type { ptr, %"class.cv::tinyxml2::StrPair", %"class.cv::tinyxml2::StrPair", ptr, ptr }

; Function Attrs: inlinehint mustprogress nounwind uwtable
define linkonce_odr hidden noundef zeroext i1 @_ZN2cv8tinyxml27XMLUtil11StringEqualEPKcS3_i(ptr noundef %0, ptr noundef %1, i32 noundef %2) #8 comdat align 2 {
  %4 = alloca i1, align 1
  %5 = alloca ptr, align 8
  %6 = alloca ptr, align 8
  %7 = alloca i32, align 4
  %8 = alloca i32, align 4
  %9 = alloca i32, align 4
  store ptr %0, ptr %5, align 8, !tbaa !14
  store ptr %1, ptr %6, align 8, !tbaa !14
  store i32 %2, ptr %7, align 4, !tbaa !15
  call void @llvm.lifetime.start.p0(i64 4, ptr %8) #17
  store i32 0, ptr %8, align 4, !tbaa !15
  %10 = load ptr, ptr %5, align 8, !tbaa !14
  %11 = load ptr, ptr %6, align 8, !tbaa !14
  %12 = icmp eq ptr %10, %11
  br i1 %12, label %13, label %14

13:                                               ; preds = %3
  store i1 true, ptr %4, align 1
  store i32 1, ptr %9, align 4
  br label %60

14:                                               ; preds = %3
  br label %15

15:                                               ; preds = %37, %14
  %16 = load ptr, ptr %5, align 8, !tbaa !14
  %17 = load i8, ptr %16, align 1, !tbaa !18
  %18 = icmp ne i8 %17, 0
  br i1 %18, label %19, label %35

19:                                               ; preds = %15
  %20 = load ptr, ptr %6, align 8, !tbaa !14
  %21 = load i8, ptr %20, align 1, !tbaa !18
  %22 = icmp ne i8 %21, 0
  br i1 %22, label %23, label %35

23:                                               ; preds = %19
  %24 = load ptr, ptr %5, align 8, !tbaa !14
  %25 = load i8, ptr %24, align 1, !tbaa !18
  %26 = sext i8 %25 to i32
  %27 = load ptr, ptr %6, align 8, !tbaa !14
  %28 = load i8, ptr %27, align 1, !tbaa !18
  %29 = sext i8 %28 to i32
  %30 = icmp eq i32 %26, %29
  br i1 %30, label %31, label %35

31:                                               ; preds = %23
  %32 = load i32, ptr %8, align 4, !tbaa !15
  %33 = load i32, ptr %7, align 4, !tbaa !15
  %34 = icmp slt i32 %32, %33
  br label %35

35:                                               ; preds = %31, %23, %19, %15
  %36 = phi i1 [ false, %23 ], [ false, %19 ], [ false, %15 ], [ %34, %31 ]
  br i1 %36, label %37, label %44

37:                                               ; preds = %35
  %38 = load ptr, ptr %5, align 8, !tbaa !14
  %39 = getelementptr inbounds nuw i8, ptr %38, i32 1
  store ptr %39, ptr %5, align 8, !tbaa !14
  %40 = load ptr, ptr %6, align 8, !tbaa !14
  %41 = getelementptr inbounds nuw i8, ptr %40, i32 1
  store ptr %41, ptr %6, align 8, !tbaa !14
  %42 = load i32, ptr %8, align 4, !tbaa !15
  %43 = add nsw i32 %42, 1
  store i32 %43, ptr %8, align 4, !tbaa !15
  br label %15, !llvm.loop !45

44:                                               ; preds = %35
  %45 = load i32, ptr %8, align 4, !tbaa !15
  %46 = load i32, ptr %7, align 4, !tbaa !15
  %47 = icmp eq i32 %45, %46
  br i1 %47, label %58, label %48

48:                                               ; preds = %44
  %49 = load ptr, ptr %5, align 8, !tbaa !14
  %50 = load i8, ptr %49, align 1, !tbaa !18
  %51 = sext i8 %50 to i32
  %52 = icmp eq i32 %51, 0
  br i1 %52, label %53, label %59

53:                                               ; preds = %48
  %54 = load ptr, ptr %6, align 8, !tbaa !14
  %55 = load i8, ptr %54, align 1, !tbaa !18
  %56 = sext i8 %55 to i32
  %57 = icmp eq i32 %56, 0
  br i1 %57, label %58, label %59

58:                                               ; preds = %53, %44
  store i1 true, ptr %4, align 1
  store i32 1, ptr %9, align 4
  br label %60

59:                                               ; preds = %53, %48
  store i1 false, ptr %4, align 1
  store i32 1, ptr %9, align 4
  br label %60

60:                                               ; preds = %59, %58, %13
  call void @llvm.lifetime.end.p0(i64 4, ptr %8) #17
  %61 = load i1, ptr %4, align 1
  ret i1 %61
}

; Function Attrs: mustprogress uwtable
define hidden noundef ptr @_ZNK2cv8tinyxml212XMLAttribute4NameEv(ptr noundef nonnull align 8 dereferenceable(72) %0) #3 align 2 {
  %2 = alloca ptr, align 8
  store ptr %0, ptr %2, align 8, !tbaa !151
  %3 = load ptr, ptr %2, align 8
  %4 = getelementptr inbounds nuw %"class.cv::tinyxml2::XMLAttribute", ptr %3, i32 0, i32 1
  %5 = call noundef ptr @_ZN2cv8tinyxml27StrPair6GetStrEv(ptr noundef nonnull align 8 dereferenceable(24) %4)
  ret ptr %5
}

; Function Attrs: mustprogress uwtable
define hidden void @_ZN2cv8tinyxml210XMLElement15DeleteAttributeEPKc(ptr noundef nonnull align 8 dereferenceable(104) %0, ptr noundef %1) #3 align 2 {
  %3 = alloca ptr, align 8
  %4 = alloca ptr, align 8
  %5 = alloca ptr, align 8
  %6 = alloca ptr, align 8
  %7 = alloca i32, align 4
  %8 = alloca ptr, align 8
  store ptr %0, ptr %3, align 8, !tbaa !121
  store ptr %1, ptr %4, align 8, !tbaa !14
  %9 = load ptr, ptr %3, align 8
  call void @llvm.lifetime.start.p0(i64 8, ptr %5) #17
  store ptr null, ptr %5, align 8, !tbaa !151
  call void @llvm.lifetime.start.p0(i64 8, ptr %6) #17
  %10 = getelementptr inbounds nuw %"class.cv::tinyxml2::XMLElement", ptr %9, i32 0, i32 2
  %11 = load ptr, ptr %10, align 8, !tbaa !152
  store ptr %11, ptr %6, align 8, !tbaa !151
  br label %12

12:                                               ; preds = %54, %2
  %13 = load ptr, ptr %6, align 8, !tbaa !151
  %14 = icmp ne ptr %13, null
  br i1 %14, label %16, label %15

15:                                               ; preds = %12
  store i32 2, ptr %7, align 4
  br label %58

16:                                               ; preds = %12
  %17 = load ptr, ptr %4, align 8, !tbaa !14
  %18 = load ptr, ptr %6, align 8, !tbaa !151
  %19 = call noundef ptr @_ZNK2cv8tinyxml212XMLAttribute4NameEv(ptr noundef nonnull align 8 dereferenceable(72) %18)
  %20 = call noundef zeroext i1 @_ZN2cv8tinyxml27XMLUtil11StringEqualEPKcS3_i(ptr noundef %17, ptr noundef %19, i32 noundef 2147483647)
  br i1 %20, label %21, label %52

21:                                               ; preds = %16
  %22 = load ptr, ptr %5, align 8, !tbaa !151
  %23 = icmp ne ptr %22, null
  br i1 %23, label %24, label %30

24:                                               ; preds = %21
  %25 = load ptr, ptr %6, align 8, !tbaa !151
  %26 = getelementptr inbounds nuw %"class.cv::tinyxml2::XMLAttribute", ptr %25, i32 0, i32 3
  %27 = load ptr, ptr %26, align 8, !tbaa !153
  %28 = load ptr, ptr %5, align 8, !tbaa !151
  %29 = getelementptr inbounds nuw %"class.cv::tinyxml2::XMLAttribute", ptr %28, i32 0, i32 3
  store ptr %27, ptr %29, align 8, !tbaa !153
  br label %35

30:                                               ; preds = %21
  %31 = load ptr, ptr %6, align 8, !tbaa !151
  %32 = getelementptr inbounds nuw %"class.cv::tinyxml2::XMLAttribute", ptr %31, i32 0, i32 3
  %33 = load ptr, ptr %32, align 8, !tbaa !153
  %34 = getelementptr inbounds nuw %"class.cv::tinyxml2::XMLElement", ptr %9, i32 0, i32 2
  store ptr %33, ptr %34, align 8, !tbaa !152
  br label %35

35:                                               ; preds = %30, %24
  %36 = load ptr, ptr %6, align 8, !tbaa !151
  %37 = icmp ne ptr %36, null
  br i1 %37, label %38, label %51

38:                                               ; preds = %35
  call void @llvm.lifetime.start.p0(i64 8, ptr %8) #17
  %39 = load ptr, ptr %6, align 8, !tbaa !151
  %40 = getelementptr inbounds nuw %"class.cv::tinyxml2::XMLAttribute", ptr %39, i32 0, i32 4
  %41 = load ptr, ptr %40, align 8, !tbaa !155
  store ptr %41, ptr %8, align 8, !tbaa !119
  %42 = load ptr, ptr %6, align 8, !tbaa !151
  %43 = load ptr, ptr %42, align 8, !tbaa !92
  %44 = getelementptr inbounds ptr, ptr %43, i64 0
  %45 = load ptr, ptr %44, align 8
  call void %45(ptr noundef nonnull align 8 dereferenceable(72) %42) #17
  %46 = load ptr, ptr %8, align 8, !tbaa !119
  %47 = load ptr, ptr %6, align 8, !tbaa !151
  %48 = load ptr, ptr %46, align 8, !tbaa !92
  %49 = getelementptr inbounds ptr, ptr %48, i64 4
  %50 = load ptr, ptr %49, align 8
  call void %50(ptr noundef nonnull align 8 dereferenceable(8) %46, ptr noundef %47)
  call void @llvm.lifetime.end.p0(i64 8, ptr %8) #17
  br label %51

51:                                               ; preds = %38, %35
  store i32 2, ptr %7, align 4
  br label %58

52:                                               ; preds = %16
  %53 = load ptr, ptr %6, align 8, !tbaa !151
  store ptr %53, ptr %5, align 8, !tbaa !151
  br label %54

54:                                               ; preds = %52
  %55 = load ptr, ptr %6, align 8, !tbaa !151
  %56 = getelementptr inbounds nuw %"class.cv::tinyxml2::XMLAttribute", ptr %55, i32 0, i32 3
  %57 = load ptr, ptr %56, align 8, !tbaa !153
  store ptr %57, ptr %6, align 8, !tbaa !151
  br label %12, !llvm.loop !170

58:                                               ; preds = %51, %15
  call void @llvm.lifetime.end.p0(i64 8, ptr %6) #17
  br label %59

59:                                               ; preds = %58
  call void @llvm.lifetime.end.p0(i64 8, ptr %5) #17
  ret void
}