; Function Attrs: mustprogress uwtable
define hidden void @_ZN2cv8tinyxml210XMLElement15DeleteAttributeEPKc(ptr noundef nonnull align 8 captures(none) dereferenceable(104) %0, ptr noundef readonly %1) local_unnamed_addr #4 align 2 {
  %3 = getelementptr inbounds nuw i8, ptr %0, i64 96
  %.01525 = load ptr, ptr %3, align 8, !tbaa !127
  %.not26 = icmp eq ptr %.01525, null
  br i1 %.not26, label %.loopexit, label %.lr.ph.preheader

.lr.ph.preheader:                                 ; preds = %2
  %4 = getelementptr inbounds nuw i8, ptr %.01525, i64 8
  %5 = tail call noundef ptr @_ZN2cv8tinyxml27StrPair6GetStrEv(ptr noundef nonnull align 8 dereferenceable(24) %4)
  %6 = icmp eq ptr %1, %5
  br i1 %6, label %.lr.ph._crit_edge, label %.preheader.i

.lr.ph:                                           ; preds = %_ZN2cv8tinyxml27XMLUtil11StringEqualEPKcS3_i.exit
  %7 = getelementptr inbounds nuw i8, ptr %.015, i64 8
  %8 = tail call noundef ptr @_ZN2cv8tinyxml27StrPair6GetStrEv(ptr noundef nonnull align 8 dereferenceable(24) %7)
  %9 = icmp eq ptr %1, %8
  br i1 %9, label %.lr.ph._crit_edge, label %.preheader.i, !llvm.loop !142

.preheader.i:                                     ; preds = %.lr.ph.preheader, %.lr.ph
  %10 = phi ptr [ %8, %.lr.ph ], [ %5, %.lr.ph.preheader ]
  %.02742 = phi ptr [ %.0152841, %.lr.ph ], [ null, %.lr.ph.preheader ]
  %.0152841 = phi ptr [ %.015, %.lr.ph ], [ %.01525, %.lr.ph.preheader ]
  %11 = load i8, ptr %1, align 1, !tbaa !12
  %.not26.i = icmp eq i8 %11, 0
  br i1 %.not26.i, label %.critedge.i.thread, label %.lr.ph.i

.lr.ph.i:                                         ; preds = %.preheader.i, %16
  %12 = phi i8 [ %20, %16 ], [ %11, %.preheader.i ]
  %.029.i = phi i32 [ %19, %16 ], [ 0, %.preheader.i ]
  %.01628.i = phi ptr [ %18, %16 ], [ %10, %.preheader.i ]
  %.01727.i = phi ptr [ %17, %16 ], [ %1, %.preheader.i ]
  %13 = load i8, ptr %.01628.i, align 1, !tbaa !12
  %14 = icmp eq i8 %12, %13
  %15 = icmp ne i32 %.029.i, 2147483647
  %or.cond23.i = select i1 %14, i1 %15, i1 false
  br i1 %or.cond23.i, label %16, label %.critedge.thread.i

16:                                               ; preds = %.lr.ph.i
  %17 = getelementptr inbounds nuw i8, ptr %.01727.i, i64 1
  %18 = getelementptr inbounds nuw i8, ptr %.01628.i, i64 1
  %19 = add nuw nsw i32 %.029.i, 1
  %20 = load i8, ptr %17, align 1, !tbaa !12
  %.not.i = icmp eq i8 %20, 0
  br i1 %.not.i, label %.critedge.i, label %.lr.ph.i, !llvm.loop !32

.critedge.i:                                      ; preds = %16
  %21 = icmp eq i32 %19, 2147483647
  br i1 %21, label %.lr.ph._crit_edge, label %.critedge.i.thread

.critedge.thread.i:                               ; preds = %.lr.ph.i
  %22 = icmp eq i32 %.029.i, 2147483647
  br i1 %22, label %.lr.ph._crit_edge, label %_ZN2cv8tinyxml27XMLUtil11StringEqualEPKcS3_i.exit

.critedge.i.thread:                               ; preds = %.preheader.i, %.critedge.i
  %.016.lcssa.i19 = phi ptr [ %18, %.critedge.i ], [ %10, %.preheader.i ]
  %23 = load i8, ptr %.016.lcssa.i19, align 1, !tbaa !12
  %24 = icmp eq i8 %23, 0
  br i1 %24, label %.lr.ph._crit_edge, label %_ZN2cv8tinyxml27XMLUtil11StringEqualEPKcS3_i.exit

.lr.ph._crit_edge:                                ; preds = %.critedge.thread.i, %.critedge.i, %.critedge.i.thread, %.lr.ph, %.lr.ph.preheader
  %.01528.lcssa = phi ptr [ %.01525, %.lr.ph.preheader ], [ %.0152841, %.critedge.thread.i ], [ %.0152841, %.critedge.i ], [ %.0152841, %.critedge.i.thread ], [ %.015, %.lr.ph ]
  %.027.lcssa = phi ptr [ null, %.lr.ph.preheader ], [ %.02742, %.critedge.thread.i ], [ %.02742, %.critedge.i ], [ %.02742, %.critedge.i.thread ], [ %.0152841, %.lr.ph ]
  %.not16 = icmp eq ptr %.027.lcssa, null
  %25 = getelementptr inbounds nuw i8, ptr %.01528.lcssa, i64 56
  %26 = load ptr, ptr %25, align 8, !tbaa !123
  br i1 %.not16, label %29, label %27

27:                                               ; preds = %.lr.ph._crit_edge
  %28 = getelementptr inbounds nuw i8, ptr %.027.lcssa, i64 56
  store ptr %26, ptr %28, align 8, !tbaa !123
  br label %30

29:                                               ; preds = %.lr.ph._crit_edge
  store ptr %26, ptr %3, align 8, !tbaa !47
  br label %30

30:                                               ; preds = %27, %29
  %31 = getelementptr inbounds nuw i8, ptr %.01528.lcssa, i64 64
  %32 = load ptr, ptr %31, align 8, !tbaa !125
  %33 = load ptr, ptr %.01528.lcssa, align 8, !tbaa !39
  %34 = load ptr, ptr %33, align 8
  tail call void %34(ptr noundef nonnull align 8 dereferenceable(72) %.01528.lcssa) #24
  %35 = load ptr, ptr %32, align 8, !tbaa !39
  %36 = getelementptr inbounds nuw i8, ptr %35, i64 32
  %37 = load ptr, ptr %36, align 8
  tail call void %37(ptr noundef nonnull align 8 dereferenceable(8) %32, ptr noundef nonnull %.01528.lcssa)
  br label %.loopexit

_ZN2cv8tinyxml27XMLUtil11StringEqualEPKcS3_i.exit: ; preds = %.critedge.i.thread, %.critedge.thread.i
  %38 = getelementptr inbounds nuw i8, ptr %.0152841, i64 56
  %.015 = load ptr, ptr %38, align 8, !tbaa !127
  %.not = icmp eq ptr %.015, null
  br i1 %.not, label %.loopexit, label %.lr.ph, !llvm.loop !142

.loopexit:                                        ; preds = %_ZN2cv8tinyxml27XMLUtil11StringEqualEPKcS3_i.exit, %2, %30
  ret void
}